; Function Attrs: mustprogress uwtable
define hidden void @_ZN4cvc58internal6theory5arith2nl15CoveringsSolver9checkFullEv(ptr noundef nonnull align 8 dereferenceable(192) %0) local_unnamed_addr #3 align 2 {
  %2 = tail call noundef nonnull align 8 dereferenceable(8) ptr @_ZNK4cvc58internal6EnvObj7warningEv(ptr noundef nonnull align 8 dereferenceable(16) %0)
  %3 = tail call noundef nonnull align 8 dereferenceable(8) ptr @_ZSt16__ostream_insertIcSt11char_traitsIcEERSt13basic_ostreamIT_T0_ES6_PKS3_l(ptr noundef nonnull align 8 dereferenceable(8) %2, ptr noundef nonnull @.str.2, i64 noundef 79)
  %4 = load ptr, ptr %2, align 8, !tbaa !3
  %5 = getelementptr i8, ptr %4, i64 -24
  %6 = load i64, ptr %5, align 8
  %7 = getelementptr inbounds i8, ptr %2, i64 %6
  %8 = getelementptr inbounds nuw i8, ptr %7, i64 240
  %9 = load ptr, ptr %8, align 8, !tbaa !66
  %.not.i.i.i = icmp eq ptr %9, null
  br i1 %.not.i.i.i, label %10, label %_ZSt13__check_facetISt5ctypeIcEERKT_PS3_.exit.i.i

10:                                               ; preds = %1
  tail call void @_ZSt16__throw_bad_castv() #24
  unreachable

_ZSt13__check_facetISt5ctypeIcEERKT_PS3_.exit.i.i: ; preds = %1
  %11 = getelementptr inbounds nuw i8, ptr %9, i64 56
  %12 = load i8, ptr %11, align 8, !tbaa !82
  %.not.i1.i.i = icmp eq i8 %12, 0
  br i1 %.not.i1.i.i, label %16, label %13

13:                                               ; preds = %_ZSt13__check_facetISt5ctypeIcEERKT_PS3_.exit.i.i
  %14 = getelementptr inbounds nuw i8, ptr %9, i64 67
  %15 = load i8, ptr %14, align 1, !tbaa !53
  br label %_ZSt4endlIcSt11char_traitsIcEERSt13basic_ostreamIT_T0_ES6_.exit

16:                                               ; preds = %_ZSt13__check_facetISt5ctypeIcEERKT_PS3_.exit.i.i
  tail call void @_ZNKSt5ctypeIcE13_M_widen_initEv(ptr noundef nonnull align 8 dereferenceable(570) %9)
  %17 = load ptr, ptr %9, align 8, !tbaa !3
  %18 = getelementptr inbounds nuw i8, ptr %17, i64 48
  %19 = load ptr, ptr %18, align 8
  %20 = tail call noundef signext i8 %19(ptr noundef nonnull align 8 dereferenceable(570) %9, i8 noundef signext 10)
  br label %_ZSt4endlIcSt11char_traitsIcEERSt13basic_ostreamIT_T0_ES6_.exit

_ZSt4endlIcSt11char_traitsIcEERSt13basic_ostreamIT_T0_ES6_.exit: ; preds = %13, %16
  %.0.i.i.i = phi i8 [ %15, %13 ], [ %20, %16 ]
  %21 = tail call noundef nonnull align 8 dereferenceable(8) ptr @_ZNSo3putEc(ptr noundef nonnull align 8 dereferenceable(8) %2, i8 noundef signext %.0.i.i.i)
  %22 = tail call noundef nonnull align 8 dereferenceable(8) ptr @_ZNSo5flushEv(ptr noundef nonnull align 8 dereferenceable(8) %21)
  ret void
}